(dp0
S'conditioner_v0'
p1
(dp2
S'pose'
p3
(lp4
F0.1
aF-0.3
aF0.08
aF0.9997500170828264
aF0.019997666768331163
aF-0.009997833434164497
aF0.00019998333383888076
asS'object_label'
p5
S'conditioner'
p6
ssS'bleach_cleanser_v0'
p7
(dp8
g3
(lp9
F0.0
aF-0.3
aF0.13
aF1.0
aF-0.0
aF0.0
aF0.0
asg5
S'bleach_cleanser'
p10
ssS'repellent_v0'
p11
(dp12
g3
(lp13
F0.2
aF-0.3
aF0.11
aF0.9999375010677004
aF-0.009999708336510399
aF0.004999729169817691
aF4.99989583412326e-05
asg5
S'repellent'
p14
ssS'shampoo_v0'
p15
(dp16
g3
(lp17
F-0.07
aF-0.3
aF0.08
aF0.7213823574366063
aF-0.6925369985634013
aF0.0
aF0.0
asg5
S'shampoo'
p18
ssS'cleanser_v0'
p19
(dp20
g3
(lp21
F-0.2
aF-0.3
aF0.09
aF1.0
aF0.0
aF-0.0
aF0.0
asg5
S'cleanser'
p22
ss.