(dp0
S'blue_moon_v0'
p1
(dp2
S'pose'
p3
(lp4
F-0.1
aF-0.3
aF0.13
aF0.7073882550901155
aF-2.8153933853986707e-06
aF-0.007070949400831227
aF0.7067898260637359
asS'object_label'
p5
S'blue_moon'
p6
ssS'bleach_cleanser_v0'
p7
(dp8
g3
(lp9
F-0.0
aF-0.3
aF0.13
aF1.0
aF0.0
aF-0.0
aF0.0
asg5
S'bleach_cleanser'
p10
ssS'magic_clean_v0'
p11
(dp12
g3
(lp13
F0.2
aF-0.3
aF0.13
aF1.0
aF0.0
aF-0.0
aF0.0
asg5
S'magic_clean'
p14
ssS'repellent_v0'
p15
(dp16
g3
(lp17
F-0.2
aF-0.3
aF0.11
aF0.9999375010677004
aF-0.009999708336510399
aF0.004999729169817691
aF4.99989583412326e-05
asg5
S'repellent'
p18
ssS'shampoo_v0'
p19
(dp20
g3
(lp21
F0.1
aF-0.3
aF0.08
aF0.7142781546118636
aF-0.6995761367962459
aF0.014287468138790933
aF0.01399338857082386
asg5
S'shampoo'
p22
ss.