(dp0
S'plastic_plum_v0'
p1
(dp2
S'pose'
p3
(lp4
F0.15
aF-0.31
aF0.02
aF0.21964969003803336
aF0.1564923291600421
aF-0.272831534857752
aF-0.9234863930602465
asS'object_label'
p5
S'plastic_plum'
p6
ssS'plastic_peach_v0'
p7
(dp8
g3
(lp9
F-0.07
aF-0.34
aF0.02
aF0.4486787599694143
aF0.18011029562789171
aF-0.03248617406866995
aF-0.8747527080584101
asg5
S'plastic_peach'
p10
ssS'plastic_strawberry_v0'
p11
(dp12
g3
(lp13
F-0.0
aF-0.52
aF0.02
aF0.6297960797406787
aF0.044592363231173215
aF0.3365561462817561
aF0.6986403792257536
asg5
S'plastic_strawberry'
p14
ssS'clear_box_1_v0'
p15
(dp16
g3
(lp17
F-0.0
aF-0.4
aF-0.1
aF0.7073882691671998
aF-0.0
aF0.0
aF0.706825181105366
asg5
S'clear_box_1'
p18
ssS'plastic_banana_v0'
p19
(dp20
g3
(lp21
F0.02
aF-0.4
aF0.03
aF0.2562259045625395
aF-0.9619385913292227
aF0.09036499182230835
aF-0.029267739844637514
asg5
S'plastic_banana'
p22
ssS'plastic_orange_v0'
p23
(dp24
g3
(lp25
F-0.14
aF-0.43
aF0.03
aF0.9502761766389412
aF-0.31004131394827883
aF0.01911913906785838
aF0.022000688148433006
asg5
S'plastic_orange'
p26
ss.