(dp0
S'cleanser_v0'
p1
(dp2
S'pose'
p3
(lp4
F0.1
aF0.0
aF0.09
aF0.7073882691671998
aF0.0
aF0.0
aF0.706825181105366
asS'object_label'
p5
S'cleanser'
p6
ssS'soap_v0'
p7
(dp8
g3
(lp9
F0.1
aF0.2
aF0.02
aF0.7677945502237202
aF0.01983739388815929
aF-0.023046965996949904
aF-0.639974096201414
asg5
S'soap'
p10
ssS'toothpaste_1_v0'
p11
(dp12
g3
(lp13
F0.11
aF-0.17
aF0.09
aF0.6337043647620968
aF0.3043060128433927
aF0.3236202527339686
aF-0.6333139510931577
asg5
S'toothpaste_1'
p14
ssS'soap_dish_v0'
p15
(dp16
g3
(lp17
F0.1
aF0.2
aF0.02
aF0.2819215663564944
aF0.0
aF0.0
aF0.9594374551908533
asg5
S'soap_dish'
p18
ssS'yellow_cup_v0'
p19
(dp20
g3
(lp21
F0.11
aF-0.2
aF0.03
aF1.0
aF-0.0
aF0.0
aF0.0
asg5
S'yellow_cup'
p22
ss.