(dp0
S'suger_2_v0'
p1
(dp2
S'pose'
p3
(lp4
F0.1
aF0.35
aF0.07
aF0.992085983712126
aF0.011167979439436647
aF0.008674651001385312
aF-0.12476148278690753
asS'object_label'
p5
S'suger_2'
p6
ssS'suger_1_v0'
p7
(dp8
g3
(lp9
F0.1
aF0.45
aF0.07
aF0.9126813131811785
aF0.024373461342543916
aF0.0055393334163330605
aF-0.4079069388198313
asg5
S'suger_1'
p10
ssS'clear_box_1_v0'
p11
(dp12
g3
(lp13
F-0.0
aF0.4
aF-0.1
aF0.7073882691671998
aF-0.0
aF0.0
aF0.706825181105366
asg5
S'clear_box_1'
p14
ssS'orion_pie_v0'
p15
(dp16
g3
(lp17
F-0.07
aF0.35
aF0.07
aF0.9980009064817986
aF-0.019962679891269264
aF-0.0011992001791792776
aF0.05995201407790342
asg5
S'orion_pie'
p18
ssS'potato_chip_1_v0'
p19
(dp20
g3
(lp21
F-0.07
aF0.45
aF0.13
aF0.9984878812375985
aF-0.0
aF0.0
aF0.05497227502706773
asg5
S'potato_chip_1'
p22
ss.